target datalayout = "e-m:e-p270:32:32-p271:32:32-p272:64:64-i64:64-i128:128-f80:128-n8:16:32:64-S128"
target triple = "x86_64-unknown-linux-gnu"

%"class.QuantLib::EndCriteria" = type { i64, i64, double, double, double }

; Function Attrs: mustprogress nounwind uwtable
define noundef zeroext i1 @_ZNK8QuantLib11EndCriteria21checkZeroGradientNormEdRNS0_4TypeE(ptr noundef nonnull align 8 dereferenceable(40) %this, double noundef %gradientNorm, ptr noundef nonnull align 4 dereferenceable(4) %ecType) #4 align 2 {
entry:
  %retval = alloca i1, align 1
  %this.addr = alloca ptr, align 8
  %gradientNorm.addr = alloca double, align 8
  %ecType.addr = alloca ptr, align 8
  store ptr %this, ptr %this.addr, align 8, !tbaa !3
  store double %gradientNorm, ptr %gradientNorm.addr, align 8, !tbaa !9
  store ptr %ecType, ptr %ecType.addr, align 8, !tbaa !3
  %this1 = load ptr, ptr %this.addr, align 8
  %0 = load double, ptr %gradientNorm.addr, align 8, !tbaa !9
  %gradientNormEpsilon_ = getelementptr inbounds nuw %"class.QuantLib::EndCriteria", ptr %this1, i32 0, i32 4
  %1 = load double, ptr %gradientNormEpsilon_, align 8, !tbaa !16
  %cmp = fcmp oge double %0, %1
  br i1 %cmp, label %if.then, label %if.end

if.then:                                          ; preds = %entry
  store i1 false, ptr %retval, align 1
  br label %return

if.end:                                           ; preds = %entry
  %2 = load ptr, ptr %ecType.addr, align 8, !tbaa !3
  store i32 5, ptr %2, align 4, !tbaa !19
  store i1 true, ptr %retval, align 1
  br label %return

return:                                           ; preds = %if.end, %if.then
  %3 = load i1, ptr %retval, align 1
  ret i1 %3
}

; Function Attrs: mustprogress nounwind uwtable
define noundef zeroext i1 @_ZNK8QuantLib11EndCriteria31checkStationaryFunctionAccuracyEdbRNS0_4TypeE(ptr noundef nonnull align 8 dereferenceable(40) %this, double noundef %f, i1 noundef zeroext %positiveOptimization, ptr noundef nonnull align 4 dereferenceable(4) %ecType) #4 align 2 {
entry:
  %retval = alloca i1, align 1
  %this.addr = alloca ptr, align 8
  %f.addr = alloca double, align 8
  %positiveOptimization.addr = alloca i8, align 1
  %ecType.addr = alloca ptr, align 8
  store ptr %this, ptr %this.addr, align 8, !tbaa !3
  store double %f, ptr %f.addr, align 8, !tbaa !9
  %storedv = zext i1 %positiveOptimization to i8
  store i8 %storedv, ptr %positiveOptimization.addr, align 1, !tbaa !21
  store ptr %ecType, ptr %ecType.addr, align 8, !tbaa !3
  %this1 = load ptr, ptr %this.addr, align 8
  %0 = load i8, ptr %positiveOptimization.addr, align 1, !tbaa !21, !range !23, !noundef !24
  %loadedv = trunc i8 %0 to i1
  br i1 %loadedv, label %if.end, label %if.then

if.then:                                          ; preds = %entry
  store i1 false, ptr %retval, align 1
  br label %return

if.end:                                           ; preds = %entry
  %1 = load double, ptr %f.addr, align 8, !tbaa !9
  %functionEpsilon_ = getelementptr inbounds nuw %"class.QuantLib::EndCriteria", ptr %this1, i32 0, i32 3
  %2 = load double, ptr %functionEpsilon_, align 8, !tbaa !15
  %cmp = fcmp oge double %1, %2
  br i1 %cmp, label %if.then2, label %if.end3

if.then2:                                         ; preds = %if.end
  store i1 false, ptr %retval, align 1
  br label %return

if.end3:                                          ; preds = %if.end
  %3 = load ptr, ptr %ecType.addr, align 8, !tbaa !3
  store i32 4, ptr %3, align 4, !tbaa !19
  store i1 true, ptr %retval, align 1
  br label %return

return:                                           ; preds = %if.end3, %if.then2, %if.then
  %4 = load i1, ptr %retval, align 1
  ret i1 %4
}

; Function Attrs: mustprogress nounwind uwtable
define noundef zeroext i1 @_ZNK8QuantLib11EndCriteria28checkStationaryFunctionValueEddRmRNS0_4TypeE(ptr noundef nonnull align 8 dereferenceable(40) %this, double noundef %fxOld, double noundef %fxNew, ptr noundef nonnull align 8 dereferenceable(8) %statStateIterations, ptr noundef nonnull align 4 dereferenceable(4) %ecType) #4 align 2 {
entry:
  %retval = alloca i1, align 1
  %this.addr = alloca ptr, align 8
  %fxOld.addr = alloca double, align 8
  %fxNew.addr = alloca double, align 8
  %statStateIterations.addr = alloca ptr, align 8
  %ecType.addr = alloca ptr, align 8
  store ptr %this, ptr %this.addr, align 8, !tbaa !3
  store double %fxOld, ptr %fxOld.addr, align 8, !tbaa !9
  store double %fxNew, ptr %fxNew.addr, align 8, !tbaa !9
  store ptr %statStateIterations, ptr %statStateIterations.addr, align 8, !tbaa !3
  store ptr %ecType, ptr %ecType.addr, align 8, !tbaa !3
  %this1 = load ptr, ptr %this.addr, align 8
  %0 = load double, ptr %fxNew.addr, align 8, !tbaa !9
  %1 = load double, ptr %fxOld.addr, align 8, !tbaa !9
  %sub = fsub double %0, %1
  %2 = call double @llvm.fabs.f64(double %sub)
  %functionEpsilon_ = getelementptr inbounds nuw %"class.QuantLib::EndCriteria", ptr %this1, i32 0, i32 3
  %3 = load double, ptr %functionEpsilon_, align 8, !tbaa !15
  %cmp = fcmp oge double %2, %3
  br i1 %cmp, label %if.then, label %if.end

if.then:                                          ; preds = %entry
  %4 = load ptr, ptr %statStateIterations.addr, align 8, !tbaa !3
  store i64 0, ptr %4, align 8, !tbaa !7
  store i1 false, ptr %retval, align 1
  br label %return

if.end:                                           ; preds = %entry
  %5 = load ptr, ptr %statStateIterations.addr, align 8, !tbaa !3
  %6 = load i64, ptr %5, align 8, !tbaa !7
  %inc = add i64 %6, 1
  store i64 %inc, ptr %5, align 8, !tbaa !7
  %7 = load ptr, ptr %statStateIterations.addr, align 8, !tbaa !3
  %8 = load i64, ptr %7, align 8, !tbaa !7
  %maxStationaryStateIterations_ = getelementptr inbounds nuw %"class.QuantLib::EndCriteria", ptr %this1, i32 0, i32 1
  %9 = load i64, ptr %maxStationaryStateIterations_, align 8, !tbaa !13
  %cmp2 = icmp ule i64 %8, %9
  br i1 %cmp2, label %if.then3, label %if.end4

if.then3:                                         ; preds = %if.end
  store i1 false, ptr %retval, align 1
  br label %return

if.end4:                                          ; preds = %if.end
  %10 = load ptr, ptr %ecType.addr, align 8, !tbaa !3
  store i32 3, ptr %10, align 4, !tbaa !19
  store i1 true, ptr %retval, align 1
  br label %return

return:                                           ; preds = %if.end4, %if.then3, %if.then
  %11 = load i1, ptr %retval, align 1
  ret i1 %11
}

; Function Attrs: mustprogress nounwind uwtable
define noundef zeroext i1 @_ZNK8QuantLib11EndCriteria18checkMaxIterationsEmRNS0_4TypeE(ptr noundef nonnull align 8 dereferenceable(40) %this, i64 noundef %iteration, ptr noundef nonnull align 4 dereferenceable(4) %ecType) #4 align 2 {
entry:
  %retval = alloca i1, align 1
  %this.addr = alloca ptr, align 8
  %iteration.addr = alloca i64, align 8
  %ecType.addr = alloca ptr, align 8
  store ptr %this, ptr %this.addr, align 8, !tbaa !3
  store i64 %iteration, ptr %iteration.addr, align 8, !tbaa !7
  store ptr %ecType, ptr %ecType.addr, align 8, !tbaa !3
  %this1 = load ptr, ptr %this.addr, align 8
  %0 = load i64, ptr %iteration.addr, align 8, !tbaa !7
  %maxIterations_ = getelementptr inbounds nuw %"class.QuantLib::EndCriteria", ptr %this1, i32 0, i32 0
  %1 = load i64, ptr %maxIterations_, align 8, !tbaa !11
  %cmp = icmp ult i64 %0, %1
  br i1 %cmp, label %if.then, label %if.end

if.then:                                          ; preds = %entry
  store i1 false, ptr %retval, align 1
  br label %return

if.end:                                           ; preds = %entry
  %2 = load ptr, ptr %ecType.addr, align 8, !tbaa !3
  store i32 1, ptr %2, align 4, !tbaa !19
  store i1 true, ptr %retval, align 1
  br label %return

return:                                           ; preds = %if.end, %if.then
  %3 = load i1, ptr %retval, align 1
  ret i1 %3
}

; Function Attrs: mustprogress nounwind uwtable
define noundef zeroext i1 @_ZNK8QuantLib11EndCriteriaclEmRmbddddRNS0_4TypeE(ptr noundef nonnull align 8 dereferenceable(40) %this, i64 noundef %iteration, ptr noundef nonnull align 8 dereferenceable(8) %statStateIterations, i1 noundef zeroext %positiveOptimization, double noundef %fold, double noundef %0, double noundef %fnew, double noundef %normgnew, ptr noundef nonnull align 4 dereferenceable(4) %ecType) #4 align 2 {
entry:
  %this.addr = alloca ptr, align 8
  %iteration.addr = alloca i64, align 8
  %statStateIterations.addr = alloca ptr, align 8
  %positiveOptimization.addr = alloca i8, align 1
  %fold.addr = alloca double, align 8
  %.addr = alloca double, align 8
  %fnew.addr = alloca double, align 8
  %normgnew.addr = alloca double, align 8
  %ecType.addr = alloca ptr, align 8
  store ptr %this, ptr %this.addr, align 8, !tbaa !3
  store i64 %iteration, ptr %iteration.addr, align 8, !tbaa !7
  store ptr %statStateIterations, ptr %statStateIterations.addr, align 8, !tbaa !3
  %storedv = zext i1 %positiveOptimization to i8
  store i8 %storedv, ptr %positiveOptimization.addr, align 1, !tbaa !21
  store double %fold, ptr %fold.addr, align 8, !tbaa !9
  store double %0, ptr %.addr, align 8, !tbaa !9
  store double %fnew, ptr %fnew.addr, align 8, !tbaa !9
  store double %normgnew, ptr %normgnew.addr, align 8, !tbaa !9
  store ptr %ecType, ptr %ecType.addr, align 8, !tbaa !3
  %this1 = load ptr, ptr %this.addr, align 8
  %1 = load i64, ptr %iteration.addr, align 8, !tbaa !7
  %2 = load ptr, ptr %ecType.addr, align 8, !tbaa !3
  %call = call noundef zeroext i1 @_ZNK8QuantLib11EndCriteria18checkMaxIterationsEmRNS0_4TypeE(ptr noundef nonnull align 8 dereferenceable(40) %this1, i64 noundef %1, ptr noundef nonnull align 4 dereferenceable(4) %2)
  br i1 %call, label %lor.end, label %lor.lhs.false

lor.lhs.false:                                    ; preds = %entry
  %3 = load double, ptr %fold.addr, align 8, !tbaa !9
  %4 = load double, ptr %fnew.addr, align 8, !tbaa !9
  %5 = load ptr, ptr %statStateIterations.addr, align 8, !tbaa !3
  %6 = load ptr, ptr %ecType.addr, align 8, !tbaa !3
  %call2 = call noundef zeroext i1 @_ZNK8QuantLib11EndCriteria28checkStationaryFunctionValueEddRmRNS0_4TypeE(ptr noundef nonnull align 8 dereferenceable(40) %this1, double noundef %3, double noundef %4, ptr noundef nonnull align 8 dereferenceable(8) %5, ptr noundef nonnull align 4 dereferenceable(4) %6)
  br i1 %call2, label %lor.end, label %lor.lhs.false3

lor.lhs.false3:                                   ; preds = %lor.lhs.false
  %7 = load double, ptr %fnew.addr, align 8, !tbaa !9
  %8 = load i8, ptr %positiveOptimization.addr, align 1, !tbaa !21, !range !23, !noundef !24
  %loadedv = trunc i8 %8 to i1
  %9 = load ptr, ptr %ecType.addr, align 8, !tbaa !3
  %call4 = call noundef zeroext i1 @_ZNK8QuantLib11EndCriteria31checkStationaryFunctionAccuracyEdbRNS0_4TypeE(ptr noundef nonnull align 8 dereferenceable(40) %this1, double noundef %7, i1 noundef zeroext %loadedv, ptr noundef nonnull align 4 dereferenceable(4) %9)
  br i1 %call4, label %lor.end, label %lor.rhs

lor.rhs:                                          ; preds = %lor.lhs.false3
  %10 = load double, ptr %normgnew.addr, align 8, !tbaa !9
  %11 = load ptr, ptr %ecType.addr, align 8, !tbaa !3
  %call5 = call noundef zeroext i1 @_ZNK8QuantLib11EndCriteria21checkZeroGradientNormEdRNS0_4TypeE(ptr noundef nonnull align 8 dereferenceable(40) %this1, double noundef %10, ptr noundef nonnull align 4 dereferenceable(4) %11)
  br label %lor.end

lor.end:                                          ; preds = %lor.rhs, %lor.lhs.false3, %lor.lhs.false, %entry
  %12 = phi i1 [ true, %lor.lhs.false3 ], [ true, %lor.lhs.false ], [ true, %entry ], [ %call5, %lor.rhs ]
  ret i1 %12
}