; Function Attrs: mustprogress nofree norecurse nosync nounwind willreturn memory(argmem: readwrite) uwtable
define noundef zeroext i1 @_ZNK8QuantLib11EndCriteriaclEmRmbddddRNS0_4TypeE(ptr nocapture noundef nonnull readonly align 8 dereferenceable(40) %this, i64 noundef %iteration, ptr nocapture noundef nonnull align 8 dereferenceable(8) %statStateIterations, i1 noundef zeroext %positiveOptimization, double noundef %fold, double noundef %0, double noundef %fnew, double noundef %normgnew, ptr nocapture noundef nonnull writeonly align 4 dereferenceable(4) %ecType) local_unnamed_addr #6 align 2 {
entry:
  %1 = load i64, ptr %this, align 8, !tbaa !3
  %cmp.i.not = icmp ult i64 %iteration, %1
  br i1 %cmp.i.not, label %lor.lhs.false, label %lor.end.sink.split

lor.lhs.false:                                    ; preds = %entry
  %sub.i = fsub double %fnew, %fold
  %2 = tail call double @llvm.fabs.f64(double %sub.i)
  %functionEpsilon_.i = getelementptr inbounds nuw i8, ptr %this, i64 24
  %3 = load double, ptr %functionEpsilon_.i, align 8, !tbaa !11
  %cmp.i5 = fcmp ult double %2, %3
  br i1 %cmp.i5, label %if.end.i6, label %if.then.i

if.then.i:                                        ; preds = %lor.lhs.false
  store i64 0, ptr %statStateIterations, align 8, !tbaa !20
  br label %lor.lhs.false3

if.end.i6:                                        ; preds = %lor.lhs.false
  %4 = load i64, ptr %statStateIterations, align 8, !tbaa !20
  %inc.i = add i64 %4, 1
  store i64 %inc.i, ptr %statStateIterations, align 8, !tbaa !20
  %maxStationaryStateIterations_.i = getelementptr inbounds nuw i8, ptr %this, i64 8
  %5 = load i64, ptr %maxStationaryStateIterations_.i, align 8, !tbaa !9
  %cmp2.not.i = icmp ugt i64 %inc.i, %5
  br i1 %cmp2.not.i, label %lor.end.sink.split, label %lor.lhs.false3

lor.lhs.false3:                                   ; preds = %if.then.i, %if.end.i6
  %6 = load double, ptr %functionEpsilon_.i, align 8
  %cmp.i8 = fcmp ult double %fnew, %6
  %or.cond.i = select i1 %positiveOptimization, i1 %cmp.i8, i1 false
  br i1 %or.cond.i, label %lor.end.sink.split, label %lor.rhs

lor.rhs:                                          ; preds = %lor.lhs.false3
  %gradientNormEpsilon_.i = getelementptr inbounds nuw i8, ptr %this, i64 32
  %7 = load double, ptr %gradientNormEpsilon_.i, align 8, !tbaa !12
  %cmp.i9 = fcmp ult double %normgnew, %7
  br i1 %cmp.i9, label %lor.end.sink.split, label %lor.end

lor.end.sink.split:                               ; preds = %lor.rhs, %lor.lhs.false3, %if.end.i6, %entry
  %.sink = phi i32 [ 1, %entry ], [ 3, %if.end.i6 ], [ 4, %lor.lhs.false3 ], [ 5, %lor.rhs ]
  store i32 %.sink, ptr %ecType, align 4, !tbaa !25
  br label %lor.end

lor.end:                                          ; preds = %lor.end.sink.split, %lor.rhs
  %8 = phi i1 [ false, %lor.rhs ], [ true, %lor.end.sink.split ]
  ret i1 %8
}